; Function Attrs: nounwind uwtable
define dso_local ptr @real_pathdup(ptr noundef %0, i32 noundef %1) local_unnamed_addr #3 {
  %3 = alloca %struct.strbuf, align 8
  call void @llvm.lifetime.start.p0(i64 24, ptr nonnull %3) #12
  call void @llvm.memcpy.p0.p0.i64(ptr noundef nonnull align 8 dereferenceable(24) %3, ptr noundef nonnull align 8 dereferenceable(24) @__const.strbuf_realpath_1.symlink, i64 24, i1 false)
  %.not.i = icmp eq i32 %1, 0
  %4 = select i1 %.not.i, i32 0, i32 2
  %5 = call fastcc ptr @strbuf_realpath_1(ptr noundef nonnull %3, ptr noundef %0, i32 noundef %4)
  %.not = icmp eq ptr %5, null
  br i1 %.not, label %8, label %6

6:                                                ; preds = %2
  %7 = call ptr @strbuf_detach(ptr noundef nonnull %3, ptr noundef null) #12
  br label %8

8:                                                ; preds = %6, %2
  %.0 = phi ptr [ %7, %6 ], [ null, %2 ]
  call void @strbuf_release(ptr noundef nonnull %3) #12
  call void @llvm.lifetime.end.p0(i64 24, ptr nonnull %3) #12
  ret ptr %.0
}